; ModuleID = 'source-C-CXX/22/489.cpp'
source_filename = "source-C-CXX/22/489.cpp"
target datalayout = "e-m:e-p270:32:32-p271:32:32-p272:64:64-i64:64-f80:128-n8:16:32:64-S128"
target triple = "x86_64-pc-linux-gnu"

%"class.std::ios_base::Init" = type { i8 }
%"class.std::basic_istream" = type { i32 (...)**, i64, %"class.std::basic_ios" }
%"class.std::basic_ios" = type { %"class.std::ios_base", %"class.std::basic_ostream"*, i8, i8, %"class.std::basic_streambuf"*, %"class.std::ctype"*, %"class.std::num_put"*, %"class.std::num_get"* }
%"class.std::ios_base" = type { i32 (...)**, i64, i64, i32, i32, i32, %"struct.std::ios_base::_Callback_list"*, %"struct.std::ios_base::_Words", [8 x %"struct.std::ios_base::_Words"], i32, %"struct.std::ios_base::_Words"*, %"class.std::locale" }
%"struct.std::ios_base::_Callback_list" = type { %"struct.std::ios_base::_Callback_list"*, void (i32, %"class.std::ios_base"*, i32)*, i32, i32 }
%"struct.std::ios_base::_Words" = type { i8*, i64 }
%"class.std::locale" = type { %"class.std::locale::_Impl"* }
%"class.std::locale::_Impl" = type { i32, %"class.std::locale::facet"**, i64, %"class.std::locale::facet"**, i8** }
%"class.std::locale::facet" = type <{ i32 (...)**, i32, [4 x i8] }>
%"class.std::basic_ostream" = type { i32 (...)**, %"class.std::basic_ios" }
%"class.std::basic_streambuf" = type { i32 (...)**, i8*, i8*, i8*, i8*, i8*, i8*, %"class.std::locale" }
%"class.std::ctype" = type <{ %"class.std::locale::facet.base", [4 x i8], %struct.__locale_struct*, i8, [7 x i8], i32*, i32*, i16*, i8, [256 x i8], [256 x i8], i8, [6 x i8] }>
%"class.std::locale::facet.base" = type <{ i32 (...)**, i32 }>
%struct.__locale_struct = type { [13 x %struct.__locale_data*], i16*, i32*, i32*, [13 x i8*] }
%struct.__locale_data = type opaque
%"class.std::num_put" = type { %"class.std::locale::facet.base", [4 x i8] }
%"class.std::num_get" = type { %"class.std::locale::facet.base", [4 x i8] }

@_ZStL8__ioinit = internal global %"class.std::ios_base::Init" zeroinitializer, align 1
@__dso_handle = external hidden global i8
@_ZSt3cin = external global %"class.std::basic_istream", align 8
@_ZSt4cout = external global %"class.std::basic_ostream", align 8
@llvm.global_ctors = appending global [1 x { i32, void ()*, i8* }] [{ i32, void ()*, i8* } { i32 65535, void ()* @_GLOBAL__sub_I_489.cpp, i8* null }]

declare void @_ZNSt8ios_base4InitC1Ev(%"class.std::ios_base::Init"* nonnull align 1 dereferenceable(1)) unnamed_addr #0

; Function Attrs: nounwind
declare void @_ZNSt8ios_base4InitD1Ev(%"class.std::ios_base::Init"* nonnull align 1 dereferenceable(1)) unnamed_addr #1

; Function Attrs: nofree nounwind
declare i32 @__cxa_atexit(void (i8*)*, i8*, i8*) local_unnamed_addr #2

; Function Attrs: mustprogress norecurse sspstrong uwtable
define dso_local i32 @main() local_unnamed_addr #3 {
  %1 = alloca i8, align 1
  %2 = alloca i8, align 1
  %3 = alloca i8, align 1
  %4 = alloca [100 x [100 x i8]], align 16
  %5 = getelementptr inbounds [100 x [100 x i8]], [100 x [100 x i8]]* %4, i64 0, i64 0, i64 0
  call void @llvm.lifetime.start.p0i8(i64 10000, i8* nonnull %5) #7
  call void @llvm.memset.p0i8.i64(i8* noundef nonnull align 16 dereferenceable(10000) %5, i8 0, i64 10000, i1 false)
  store i8 10, i8* %5, align 16
  %6 = tail call i32 @_ZNSi3getEv(%"class.std::basic_istream"* nonnull align 8 dereferenceable(16) @_ZSt3cin)
  %7 = trunc i32 %6 to i8
  %8 = icmp eq i8 %7, 0
  br i1 %8, label %33, label %9

9:                                                ; preds = %0, %18
  %10 = phi i64 [ %19, %18 ], [ 1, %0 ]
  %11 = phi i8 [ %21, %18 ], [ %7, %0 ]
  %12 = phi i32 [ %20, %18 ], [ %6, %0 ]
  br label %13

13:                                               ; preds = %9, %23
  %14 = phi i64 [ 1, %9 ], [ %25, %23 ]
  %15 = phi i8 [ %11, %9 ], [ %27, %23 ]
  %16 = phi i32 [ %12, %9 ], [ %26, %23 ]
  %17 = shl i32 %16, 24
  switch i32 %17, label %23 [
    i32 536870912, label %18
    i32 167772160, label %29
  ]

18:                                               ; preds = %13
  %19 = add nuw i64 %10, 1
  %20 = tail call i32 @_ZNSi3getEv(%"class.std::basic_istream"* nonnull align 8 dereferenceable(16) @_ZSt3cin)
  %21 = trunc i32 %20 to i8
  %22 = icmp eq i8 %21, 0
  br i1 %22, label %29, label %9, !llvm.loop !5

23:                                               ; preds = %13
  %24 = getelementptr inbounds [100 x [100 x i8]], [100 x [100 x i8]]* %4, i64 0, i64 %10, i64 %14
  store i8 %15, i8* %24, align 1, !tbaa !7
  %25 = add nuw i64 %14, 1
  %26 = tail call i32 @_ZNSi3getEv(%"class.std::basic_istream"* nonnull align 8 dereferenceable(16) @_ZSt3cin)
  %27 = trunc i32 %26 to i8
  %28 = icmp eq i8 %27, 0
  br i1 %28, label %29, label %13, !llvm.loop !5

29:                                               ; preds = %18, %23, %13
  %30 = phi i64 [ %10, %13 ], [ %10, %23 ], [ %19, %18 ]
  %31 = trunc i64 %30 to i32
  %32 = icmp sgt i32 %31, 1
  br i1 %32, label %34, label %33

33:                                               ; preds = %38, %0, %29
  br label %56

34:                                               ; preds = %29
  %35 = and i64 %30, 4294967295
  br label %36

36:                                               ; preds = %34, %38
  %37 = phi i64 [ %35, %34 ], [ %39, %38 ]
  br label %41

38:                                               ; preds = %52, %50
  %39 = add nsw i64 %37, -1
  %40 = icmp sgt i64 %37, 2
  br i1 %40, label %36, label %33, !llvm.loop !10

41:                                               ; preds = %36, %52
  %42 = phi i64 [ 1, %36 ], [ %53, %52 ]
  %43 = getelementptr inbounds [100 x [100 x i8]], [100 x [100 x i8]]* %4, i64 0, i64 %37, i64 %42
  %44 = load i8, i8* %43, align 1, !tbaa !7
  %45 = icmp eq i8 %44, 0
  br i1 %45, label %48, label %46

46:                                               ; preds = %41
  call void @llvm.lifetime.start.p0i8(i64 1, i8* nonnull %3)
  store i8 %44, i8* %3, align 1, !tbaa !7
  %47 = call nonnull align 8 dereferenceable(8) %"class.std::basic_ostream"* @_ZSt16__ostream_insertIcSt11char_traitsIcEERSt13basic_ostreamIT_T0_ES6_PKS3_l(%"class.std::basic_ostream"* nonnull align 8 dereferenceable(8) @_ZSt4cout, i8* nonnull %3, i64 1)
  call void @llvm.lifetime.end.p0i8(i64 1, i8* nonnull %3)
  br label %48

48:                                               ; preds = %46, %41
  %49 = icmp eq i64 %42, 99
  br i1 %49, label %50, label %52

50:                                               ; preds = %48
  call void @llvm.lifetime.start.p0i8(i64 1, i8* nonnull %2)
  store i8 32, i8* %2, align 1, !tbaa !7
  %51 = call nonnull align 8 dereferenceable(8) %"class.std::basic_ostream"* @_ZSt16__ostream_insertIcSt11char_traitsIcEERSt13basic_ostreamIT_T0_ES6_PKS3_l(%"class.std::basic_ostream"* nonnull align 8 dereferenceable(8) @_ZSt4cout, i8* nonnull %2, i64 1)
  call void @llvm.lifetime.end.p0i8(i64 1, i8* nonnull %2)
  br label %38

52:                                               ; preds = %48
  %53 = add nuw nsw i64 %42, 1
  %54 = icmp eq i64 %53, 100
  br i1 %54, label %38, label %41, !llvm.loop !11

55:                                               ; preds = %63
  call void @llvm.lifetime.end.p0i8(i64 10000, i8* nonnull %5) #7
  ret i32 0

56:                                               ; preds = %33, %63
  %57 = phi i64 [ %64, %63 ], [ 1, %33 ]
  %58 = getelementptr inbounds [100 x [100 x i8]], [100 x [100 x i8]]* %4, i64 0, i64 1, i64 %57
  %59 = load i8, i8* %58, align 1, !tbaa !7
  %60 = icmp eq i8 %59, 0
  br i1 %60, label %63, label %61

61:                                               ; preds = %56
  call void @llvm.lifetime.start.p0i8(i64 1, i8* nonnull %1)
  store i8 %59, i8* %1, align 1, !tbaa !7
  %62 = call nonnull align 8 dereferenceable(8) %"class.std::basic_ostream"* @_ZSt16__ostream_insertIcSt11char_traitsIcEERSt13basic_ostreamIT_T0_ES6_PKS3_l(%"class.std::basic_ostream"* nonnull align 8 dereferenceable(8) @_ZSt4cout, i8* nonnull %1, i64 1)
  call void @llvm.lifetime.end.p0i8(i64 1, i8* nonnull %1)
  br label %63

63:                                               ; preds = %56, %61
  %64 = add nuw nsw i64 %57, 1
  %65 = icmp eq i64 %64, 100
  br i1 %65, label %55, label %56, !llvm.loop !12
}

; Function Attrs: argmemonly mustprogress nofree nosync nounwind willreturn
declare void @llvm.lifetime.start.p0i8(i64 immarg, i8* nocapture) #4

; Function Attrs: argmemonly mustprogress nofree nounwind willreturn writeonly
declare void @llvm.memset.p0i8.i64(i8* nocapture writeonly, i8, i64, i1 immarg) #5

declare i32 @_ZNSi3getEv(%"class.std::basic_istream"* nonnull align 8 dereferenceable(16)) local_unnamed_addr #0

; Function Attrs: argmemonly mustprogress nofree nosync nounwind willreturn
declare void @llvm.lifetime.end.p0i8(i64 immarg, i8* nocapture) #4

declare nonnull align 8 dereferenceable(8) %"class.std::basic_ostream"* @_ZSt16__ostream_insertIcSt11char_traitsIcEERSt13basic_ostreamIT_T0_ES6_PKS3_l(%"class.std::basic_ostream"* nonnull align 8 dereferenceable(8), i8*, i64) local_unnamed_addr #0

; Function Attrs: sspstrong uwtable
define internal void @_GLOBAL__sub_I_489.cpp() #6 section ".text.startup" {
  tail call void @_ZNSt8ios_base4InitC1Ev(%"class.std::ios_base::Init"* nonnull align 1 dereferenceable(1) @_ZStL8__ioinit)
  %1 = tail call i32 @__cxa_atexit(void (i8*)* bitcast (void (%"class.std::ios_base::Init"*)* @_ZNSt8ios_base4InitD1Ev to void (i8*)*), i8* getelementptr inbounds (%"class.std::ios_base::Init", %"class.std::ios_base::Init"* @_ZStL8__ioinit, i64 0, i32 0), i8* nonnull @__dso_handle) #7
  ret void
}


!llvm.module.flags = !{!0, !1, !2, !3}
!llvm.ident = !{!4}

!0 = !{i32 1, !"wchar_size", i32 4}
!1 = !{i32 7, !"PIC Level", i32 2}
!2 = !{i32 7, !"PIE Level", i32 2}
!3 = !{i32 7, !"uwtable", i32 1}
!4 = !{!"clang version 13.0.0"}
!5 = distinct !{!5, !6}
!6 = !{!"llvm.loop.mustprogress"}
!7 = !{!8, !8, i64 0}
!8 = !{!"omnipotent char", !9, i64 0}
!9 = !{!"Simple C++ TBAA"}
!10 = distinct !{!10, !6}
!11 = distinct !{!11, !6}
!12 = distinct !{!12, !6}
